; Function Attrs: nounwind sspstrong uwtable
define dso_local i32 @rb_obj_method_arity(i64 noundef %0, i64 noundef %1) local_unnamed_addr #0 {
  %3 = alloca i32, align 4
  %4 = icmp eq i64 %0, 0
  %5 = and i64 %0, 7
  %6 = icmp ne i64 %5, 0
  %7 = or i1 %4, %6
  br i1 %7, label %11, label %8

8:                                                ; preds = %2
  %9 = inttoptr i64 %0 to ptr
  %10 = getelementptr inbounds nuw i8, ptr %9, i64 8
  br label %rb_class_of.exit

11:                                               ; preds = %2
  switch i64 %0, label %14 [
    i64 0, label %rb_class_of.exit
    i64 4, label %12
    i64 20, label %13
  ]

12:                                               ; preds = %11
  br label %rb_class_of.exit

13:                                               ; preds = %11
  br label %rb_class_of.exit

14:                                               ; preds = %11
  %15 = and i64 %0, 1
  %.not.i = icmp eq i64 %15, 0
  br i1 %.not.i, label %16, label %rb_class_of.exit

16:                                               ; preds = %14
  %17 = and i64 %0, 254
  %18 = icmp eq i64 %17, 12
  %spec.select.i = select i1 %18, ptr @rb_cSymbol, ptr @rb_cFloat
  br label %rb_class_of.exit

rb_class_of.exit:                                 ; preds = %8, %11, %12, %13, %14, %16
  %.0.in.i = phi ptr [ @rb_cNilClass, %12 ], [ @rb_cTrueClass, %13 ], [ %10, %8 ], [ @rb_cFalseClass, %11 ], [ @rb_cInteger, %14 ], [ %spec.select.i, %16 ]
  %.0.i = load i64, ptr %.0.in.i, align 8, !tbaa !36
  %19 = tail call ptr @rb_method_entry(i64 noundef %.0.i, i64 noundef %1) #21
  %.not16.i.i = icmp eq ptr %19, null
  br i1 %.not16.i.i, label %rb_mod_method_arity.exit, label %.lr.ph.i.i

.lr.ph.i.i:                                       ; preds = %rb_class_of.exit, %25
  %20 = phi ptr [ %33, %25 ], [ %19, %rb_class_of.exit ]
  %21 = getelementptr inbounds nuw i8, ptr %20, i64 16
  %22 = load ptr, ptr %21, align 8, !tbaa !77
  %23 = load i64, ptr %22, align 8
  %24 = and i64 %23, 15
  %.not11.i.i = icmp eq i64 %24, 5
  br i1 %.not11.i.i, label %25, label %original_method_entry.exit.i

25:                                               ; preds = %.lr.ph.i.i
  %26 = getelementptr inbounds nuw i8, ptr %20, i64 32
  %27 = load i64, ptr %26, align 8, !tbaa !104
  %28 = inttoptr i64 %27 to ptr
  %29 = getelementptr inbounds nuw i8, ptr %28, i64 16
  %30 = load i64, ptr %29, align 8, !tbaa !102
  %31 = getelementptr inbounds nuw i8, ptr %22, i64 32
  %32 = load i64, ptr %31, align 8, !tbaa !105
  %33 = tail call ptr @rb_method_entry(i64 noundef %30, i64 noundef %32) #21
  %.not.i.i = icmp eq ptr %33, null
  br i1 %.not.i.i, label %rb_mod_method_arity.exit, label %.lr.ph.i.i

original_method_entry.exit.i:                     ; preds = %.lr.ph.i.i
  call void @llvm.lifetime.start.p0(i64 4, ptr nonnull %3) #21
  %34 = call fastcc i32 @method_def_min_max_arity(ptr noundef nonnull %22, ptr noundef nonnull %3)
  %35 = load i32, ptr %3, align 4, !tbaa !41
  %36 = icmp ne i32 %34, %35
  %37 = sext i1 %36 to i32
  %38 = xor i32 %34, %37
  call void @llvm.lifetime.end.p0(i64 4, ptr nonnull %3) #21
  br label %rb_mod_method_arity.exit

rb_mod_method_arity.exit:                         ; preds = %25, %rb_class_of.exit, %original_method_entry.exit.i
  %.0.i2 = phi i32 [ %38, %original_method_entry.exit.i ], [ 0, %rb_class_of.exit ], [ 0, %25 ]
  ret i32 %.0.i2
}